---
triple:          'arm64-apple-darwin'
binary-path:     '/Users/ishan/Documents/System_Design/LLD/document-editor/good_design'
relocations:
  - { offset: 0x6E5B, size: 0x8, addend: 0x0, symName: __ZStL8__ioinit, symObjAddr: 0x2BCDE, symBinAddr: 0x10000C000, symSize: 0x0 }
  - { offset: 0x76F2, size: 0x8, addend: 0x0, symName: __GLOBAL__sub_I_good_design.cpp, symObjAddr: 0x3478, symBinAddr: 0x100003738, symSize: 0x14 }
  - { offset: 0x7709, size: 0x8, addend: 0x0, symName: __Z41__static_initialization_and_destruction_0v, symObjAddr: 0x343C, symBinAddr: 0x1000036FC, symSize: 0x3C }
  - { offset: 0x778C, size: 0x8, addend: 0x0, symName: __ZSt14__relocate_a_1IP15DocumentElementS1_ENSt9enable_ifIXsrSt24__is_bitwise_relocatableIT_vE5valueEPS4_E4typeES6_S6_S6_RSaIT0_E, symObjAddr: 0x2F00, symBinAddr: 0x100003698, symSize: 0x64 }
  - { offset: 0x7827, size: 0x8, addend: 0x0, symName: __ZNSt15__new_allocatorIP15DocumentElementE8allocateEmPKv, symObjAddr: 0x2E84, symBinAddr: 0x10000361C, symSize: 0x7C }
  - { offset: 0x7898, size: 0x8, addend: 0x0, symName: __ZNKSt12_Vector_baseIP15DocumentElementSaIS1_EE19_M_get_Tp_allocatorEv, symObjAddr: 0x2E70, symBinAddr: 0x100003608, symSize: 0x14 }
  - { offset: 0x78BC, size: 0x8, addend: 0x0, symName: __ZNSt6vectorIP15DocumentElementSaIS1_EE11_S_max_sizeERKS2_, symObjAddr: 0x2E1C, symBinAddr: 0x1000035B4, symSize: 0x54 }
  - { offset: 0x7973, size: 0x8, addend: 0x0, symName: __ZNSt15__new_allocatorIcE8allocateEmPKv, symObjAddr: 0x2DB8, symBinAddr: 0x100003550, symSize: 0x64 }
  - { offset: 0x7A30, size: 0x8, addend: 0x0, symName: __ZNSt15__new_allocatorIP15DocumentElementE10deallocateEPS1_m, symObjAddr: 0x2D88, symBinAddr: 0x100003520, symSize: 0x30 }
  - { offset: 0x7A76, size: 0x8, addend: 0x0, symName: __ZNSt15__new_allocatorIcE10deallocateEPcm, symObjAddr: 0x2D60, symBinAddr: 0x1000034F8, symSize: 0x28 }
  - { offset: 0x7AB8, size: 0x8, addend: 0x0, symName: __ZSt12__relocate_aIPP15DocumentElementS2_SaIS1_EET0_T_S5_S4_RT1_, symObjAddr: 0x2D14, symBinAddr: 0x1000034AC, symSize: 0x4C }
  - { offset: 0x7BBE, size: 0x8, addend: 0x0, symName: __ZSt3maxImERKT_S2_S2_, symObjAddr: 0x2CDC, symBinAddr: 0x100003474, symSize: 0x38 }
  - { offset: 0x7C03, size: 0x8, addend: 0x0, symName: __ZNKSt6vectorIP15DocumentElementSaIS1_EE4sizeEv, symObjAddr: 0x2C9C, symBinAddr: 0x100003434, symSize: 0x40 }
  - { offset: 0x7C3B, size: 0x8, addend: 0x0, symName: __ZNKSt6vectorIP15DocumentElementSaIS1_EE8max_sizeEv, symObjAddr: 0x2C7C, symBinAddr: 0x100003414, symSize: 0x20 }
  - { offset: 0x7C68, size: 0x8, addend: 0x0, symName: __ZNSt7__cxx1112basic_stringIcSt11char_traitsIcESaIcEE9_M_mutateEmmPKcm, symObjAddr: 0x2B24, symBinAddr: 0x1000032BC, symSize: 0x158 }
  - { offset: 0x7D7C, size: 0x8, addend: 0x0, symName: __ZNSt19__ptr_traits_ptr_toIPKcS0_Lb0EE10pointer_toERS0_, symObjAddr: 0x2AFC, symBinAddr: 0x100003294, symSize: 0x28 }
  - { offset: 0x7EAA, size: 0x8, addend: 0x0, symName: __ZNSt6vectorIP15DocumentElementSaIS1_EE11_S_relocateEPS1_S4_S4_RS2_, symObjAddr: 0x2AC8, symBinAddr: 0x100003260, symSize: 0x34 }
  - { offset: 0x7F3B, size: 0x8, addend: 0x0, symName: __ZNSt6vectorIP15DocumentElementSaIS1_EE12_Guard_allocD1Ev, symObjAddr: 0x2A7C, symBinAddr: 0x100003214, symSize: 0x4C }
  - { offset: 0x7FA0, size: 0x8, addend: 0x0, symName: __ZNSt6vectorIP15DocumentElementSaIS1_EE12_Guard_allocC1EPS1_mRSt12_Vector_baseIS1_S2_E, symObjAddr: 0x2A38, symBinAddr: 0x1000031D0, symSize: 0x44 }
  - { offset: 0x7FE0, size: 0x8, addend: 0x0, symName: __ZNSt12_Vector_baseIP15DocumentElementSaIS1_EE11_M_allocateEm, symObjAddr: 0x29E8, symBinAddr: 0x100003180, symSize: 0x50 }
  - { offset: 0x807E, size: 0x8, addend: 0x0, symName: __ZNKSt6vectorIP15DocumentElementSaIS1_EE12_M_check_lenEmPKc, symObjAddr: 0x2918, symBinAddr: 0x1000030B0, symSize: 0xD0 }
  - { offset: 0x8140, size: 0x8, addend: 0x0, symName: __ZNSt7__cxx1112basic_stringIcSt11char_traitsIcESaIcEE9_M_appendEPKcm, symObjAddr: 0x2850, symBinAddr: 0x100002FE8, symSize: 0xC8 }
  - { offset: 0x8198, size: 0x8, addend: 0x0, symName: __ZNKSt7__cxx1112basic_stringIcSt11char_traitsIcESaIcEE15_M_check_lengthEmmPKc, symObjAddr: 0x27DC, symBinAddr: 0x100002F74, symSize: 0x74 }
  - { offset: 0x81F0, size: 0x8, addend: 0x0, symName: __ZNSt7__cxx1112basic_stringIcSt11char_traitsIcESaIcEE6appendEPKcm, symObjAddr: 0x2798, symBinAddr: 0x100002F30, symSize: 0x44 }
  - { offset: 0x825E, size: 0x8, addend: 0x0, symName: __ZNSt7__cxx1112basic_stringIcSt11char_traitsIcESaIcEEC1ERKS3_, symObjAddr: 0x2740, symBinAddr: 0x100002ED8, symSize: 0x58 }
  - { offset: 0x82EA, size: 0x8, addend: 0x0, symName: __ZNSt7__cxx1112basic_stringIcSt11char_traitsIcESaIcEE11_S_allocateERS3_m, symObjAddr: 0x26FC, symBinAddr: 0x100002E94, symSize: 0x44 }
  - { offset: 0x836D, size: 0x8, addend: 0x0, symName: __ZNSt7__cxx1112basic_stringIcSt11char_traitsIcESaIcEE13_S_copy_charsIPKcEEvPcT_S9_, symObjAddr: 0x26B4, symBinAddr: 0x100002E4C, symSize: 0x48 }
  - { offset: 0x83E6, size: 0x8, addend: 0x0, symName: __ZNKSt7__cxx1112basic_stringIcSt11char_traitsIcESaIcEE8max_sizeEv, symObjAddr: 0x2658, symBinAddr: 0x100002DF0, symSize: 0x5C }
  - { offset: 0x8495, size: 0x8, addend: 0x0, symName: __ZSt3minImERKT_S2_S2_, symObjAddr: 0x2620, symBinAddr: 0x100002DB8, symSize: 0x38 }
  - { offset: 0x8500, size: 0x8, addend: 0x0, symName: __ZNKSt7__cxx1112basic_stringIcSt11char_traitsIcESaIcEE13_M_local_dataEv, symObjAddr: 0x2600, symBinAddr: 0x100002D98, symSize: 0x20 }
  - { offset: 0x852C, size: 0x8, addend: 0x0, symName: __ZNSt7__cxx1112basic_stringIcSt11char_traitsIcESaIcEE9_M_createERmm, symObjAddr: 0x250C, symBinAddr: 0x100002CA4, symSize: 0xF4 }
  - { offset: 0x8572, size: 0x8, addend: 0x0, symName: __ZNKSt7__cxx1112basic_stringIcSt11char_traitsIcESaIcEE8capacityEv, symObjAddr: 0x2488, symBinAddr: 0x100002C20, symSize: 0x84 }
  - { offset: 0x85C6, size: 0x8, addend: 0x0, symName: __ZNSt19__ptr_traits_ptr_toIPccLb0EE10pointer_toERc, symObjAddr: 0x2460, symBinAddr: 0x100002BF8, symSize: 0x28 }
  - { offset: 0x8637, size: 0x8, addend: 0x0, symName: __ZNSt12_Vector_baseIP15DocumentElementSaIS1_EE19_M_get_Tp_allocatorEv, symObjAddr: 0x244C, symBinAddr: 0x100002BE4, symSize: 0x14 }
  - { offset: 0x865F, size: 0x8, addend: 0x0, symName: __ZNSt12_Vector_baseIP15DocumentElementSaIS1_EE13_M_deallocateEPS1_m, symObjAddr: 0x23F4, symBinAddr: 0x100002B8C, symSize: 0x58 }
  - { offset: 0x86F6, size: 0x8, addend: 0x0, symName: __ZNSt12_Vector_baseIP15DocumentElementSaIS1_EE17_Vector_impl_dataC2Ev, symObjAddr: 0x23C8, symBinAddr: 0x100002B60, symSize: 0x2C }
  - { offset: 0x872F, size: 0x8, addend: 0x0, symName: __ZNSt7__cxx1112basic_stringIcSt11char_traitsIcESaIcEE5clearEv, symObjAddr: 0x23A4, symBinAddr: 0x100002B3C, symSize: 0x24 }
  - { offset: 0x875C, size: 0x8, addend: 0x0, symName: __ZNSt7__cxx1112basic_stringIcSt11char_traitsIcESaIcEE9_M_assignERKS4_, symObjAddr: 0x22B0, symBinAddr: 0x100002A48, symSize: 0xF4 }
  - { offset: 0x881A, size: 0x8, addend: 0x0, symName: __ZNSt7__cxx1112basic_stringIcSt11char_traitsIcESaIcEE7_S_copyEPcPKcm, symObjAddr: 0x2264, symBinAddr: 0x1000029FC, symSize: 0x4C }
  - { offset: 0x88AC, size: 0x8, addend: 0x0, symName: __ZNSt7__cxx1112basic_stringIcSt11char_traitsIcESaIcEE10_M_destroyEm, symObjAddr: 0x2200, symBinAddr: 0x100002998, symSize: 0x64 }
  - { offset: 0x891A, size: 0x8, addend: 0x0, symName: __ZNSt7__cxx1112basic_stringIcSt11char_traitsIcESaIcEE6appendERKS4_, symObjAddr: 0x21BC, symBinAddr: 0x100002954, symSize: 0x44 }
  - { offset: 0x8973, size: 0x8, addend: 0x0, symName: __ZNSt6vectorIP15DocumentElementSaIS1_EE17_M_realloc_appendIJRKS1_EEEvDpOT_, symObjAddr: 0x1FC8, symBinAddr: 0x100002760, symSize: 0x1F4 }
  - { offset: 0x8BF8, size: 0x8, addend: 0x0, symName: __ZNSt7__cxx1112basic_stringIcSt11char_traitsIcESaIcEE6appendEPKc, symObjAddr: 0x1F7C, symBinAddr: 0x100002714, symSize: 0x4C }
  - { offset: 0x8C42, size: 0x8, addend: 0x0, symName: __ZSt12__str_concatINSt7__cxx1112basic_stringIcSt11char_traitsIcESaIcEEEET_PKNS6_10value_typeENS6_9size_typeES9_SA_RKNS6_14allocator_typeE, symObjAddr: 0x1E9C, symBinAddr: 0x100002634, symSize: 0xE0 }
  - { offset: 0x8D8D, size: 0x8, addend: 0x0, symName: __ZNKSt7__cxx1112basic_stringIcSt11char_traitsIcESaIcEE13get_allocatorEv, symObjAddr: 0x1E4C, symBinAddr: 0x1000025E4, symSize: 0x50 }
  - { offset: 0x8E0E, size: 0x8, addend: 0x0, symName: __ZNSt7__cxx1112basic_stringIcSt11char_traitsIcESaIcEE12_M_constructILb1EEEvPKcm, symObjAddr: 0x1DAC, symBinAddr: 0x100002544, symSize: 0xA0 }
  - { offset: 0x8E97, size: 0x8, addend: 0x0, symName: __ZNKSt7__cxx1112basic_stringIcSt11char_traitsIcESaIcEE16_M_get_allocatorEv, symObjAddr: 0x1D98, symBinAddr: 0x100002530, symSize: 0x14 }
  - { offset: 0x8EBF, size: 0x8, addend: 0x0, symName: __ZNSt7__cxx1112basic_stringIcSt11char_traitsIcESaIcEE6assignERKS4_, symObjAddr: 0x1BB8, symBinAddr: 0x100002350, symSize: 0x1E0 }
  - { offset: 0x90A6, size: 0x8, addend: 0x0, symName: __ZNSt7__cxx1112basic_stringIcSt11char_traitsIcESaIcEE12_M_constructIPKcEEvT_S8_St20forward_iterator_tag, symObjAddr: 0x1AD8, symBinAddr: 0x100002270, symSize: 0xE0 }
  - { offset: 0x919D, size: 0x8, addend: 0x0, symName: __ZZNSt7__cxx1112basic_stringIcSt11char_traitsIcESaIcEE12_M_constructIPKcEEvT_S8_St20forward_iterator_tagEN6_GuardC1EPS4_, symObjAddr: 0x1A80, symBinAddr: 0x100002218, symSize: 0x24 }
  - { offset: 0x91D0, size: 0x8, addend: 0x0, symName: __ZZNSt7__cxx1112basic_stringIcSt11char_traitsIcESaIcEE12_M_constructIPKcEEvT_S8_St20forward_iterator_tagEN6_GuardD1Ev, symObjAddr: 0x1AA4, symBinAddr: 0x10000223C, symSize: 0x34 }
  - { offset: 0x92DC, size: 0x8, addend: 0x0, symName: __ZNSt7__cxx1112basic_stringIcSt11char_traitsIcESaIcEE12_Alloc_hiderC1EPcRKS3_, symObjAddr: 0x1A30, symBinAddr: 0x1000021C8, symSize: 0x50 }
  - { offset: 0x9384, size: 0x8, addend: 0x0, symName: __ZNSt15__new_allocatorIcED2Ev, symObjAddr: 0x1A1C, symBinAddr: 0x1000021B4, symSize: 0x14 }
  - { offset: 0x93BD, size: 0x8, addend: 0x0, symName: __ZNKSt7__cxx1112basic_stringIcSt11char_traitsIcESaIcEE4sizeEv, symObjAddr: 0x19CC, symBinAddr: 0x100002164, symSize: 0x50 }
  - { offset: 0x941E, size: 0x8, addend: 0x0, symName: __ZNSt7__cxx1112basic_stringIcSt11char_traitsIcESaIcEE9_M_lengthEm, symObjAddr: 0x19A8, symBinAddr: 0x100002140, symSize: 0x24 }
  - { offset: 0x9455, size: 0x8, addend: 0x0, symName: __ZNSt7__cxx1112basic_stringIcSt11char_traitsIcESaIcEE11_M_capacityEm, symObjAddr: 0x1984, symBinAddr: 0x10000211C, symSize: 0x24 }
  - { offset: 0x948D, size: 0x8, addend: 0x0, symName: __ZNSt7__cxx1112basic_stringIcSt11char_traitsIcESaIcEE7_M_dataEPc, symObjAddr: 0x1960, symBinAddr: 0x1000020F8, symSize: 0x24 }
  - { offset: 0x94C4, size: 0x8, addend: 0x0, symName: __ZNKSt7__cxx1112basic_stringIcSt11char_traitsIcESaIcEE6lengthEv, symObjAddr: 0x1944, symBinAddr: 0x1000020DC, symSize: 0x1C }
  - { offset: 0x94EC, size: 0x8, addend: 0x0, symName: __ZNKSt7__cxx1112basic_stringIcSt11char_traitsIcESaIcEE11_M_is_localEv, symObjAddr: 0x18DC, symBinAddr: 0x100002074, symSize: 0x68 }
  - { offset: 0x9536, size: 0x8, addend: 0x0, symName: __ZNSt7__cxx1112basic_stringIcSt11char_traitsIcESaIcEE16_M_get_allocatorEv, symObjAddr: 0x18C8, symBinAddr: 0x100002060, symSize: 0x14 }
  - { offset: 0x9563, size: 0x8, addend: 0x0, symName: __ZNSt7__cxx1112basic_stringIcSt11char_traitsIcESaIcEE7reserveEm, symObjAddr: 0x1820, symBinAddr: 0x100001FB8, symSize: 0xA8 }
  - { offset: 0x95BB, size: 0x8, addend: 0x0, symName: __ZNSt7__cxx1112basic_stringIcSt11char_traitsIcESaIcEE10_M_disposeEv, symObjAddr: 0x17D8, symBinAddr: 0x100001F70, symSize: 0x48 }
  - { offset: 0x95E3, size: 0x8, addend: 0x0, symName: __ZNSt7__cxx1112basic_stringIcSt11char_traitsIcESaIcEE13_M_set_lengthEm, symObjAddr: 0x1790, symBinAddr: 0x100001F28, symSize: 0x48 }
  - { offset: 0x9660, size: 0x8, addend: 0x0, symName: __ZNSt7__cxx1112basic_stringIcSt11char_traitsIcESaIcEE12_Alloc_hiderC1EPcOS3_, symObjAddr: 0x1738, symBinAddr: 0x100001ED0, symSize: 0x58 }
  - { offset: 0x9713, size: 0x8, addend: 0x0, symName: __ZNSt7__cxx1112basic_stringIcSt11char_traitsIcESaIcEE13_M_local_dataEv, symObjAddr: 0x1718, symBinAddr: 0x100001EB0, symSize: 0x20 }
  - { offset: 0x973B, size: 0x8, addend: 0x0, symName: __ZNKSt7__cxx1112basic_stringIcSt11char_traitsIcESaIcEE7_M_dataEv, symObjAddr: 0x1700, symBinAddr: 0x100001E98, symSize: 0x18 }
  - { offset: 0x975F, size: 0x8, addend: 0x0, symName: __ZN9__gnu_cxx11char_traitsIcE2eqERKcS3_, symObjAddr: 0x16D0, symBinAddr: 0x100001E68, symSize: 0x30 }
  - { offset: 0x97B2, size: 0x8, addend: 0x0, symName: __ZNSt12_Vector_baseIP15DocumentElementSaIS1_EE12_Vector_implC1Ev, symObjAddr: 0x1698, symBinAddr: 0x100001E30, symSize: 0x38 }
  - { offset: 0x981D, size: 0x8, addend: 0x0, symName: __ZNSt7__cxx1112basic_stringIcSt11char_traitsIcESaIcEEaSEOS4_, symObjAddr: 0x1440, symBinAddr: 0x100001BD8, symSize: 0x258 }
  - { offset: 0x9929, size: 0x8, addend: 0x0, symName: __ZNKSt7__cxx1112basic_stringIcSt11char_traitsIcESaIcEE5emptyEv, symObjAddr: 0x141C, symBinAddr: 0x100001BB4, symSize: 0x24 }
  - { offset: 0x9957, size: 0x8, addend: 0x0, symName: __ZNSt7__cxx1112basic_stringIcSt11char_traitsIcESaIcEEpLERKS4_, symObjAddr: 0x13F8, symBinAddr: 0x100001B90, symSize: 0x24 }
  - { offset: 0x99A3, size: 0x8, addend: 0x0, symName: __ZNSt6vectorIP15DocumentElementSaIS1_EE3endEv, symObjAddr: 0x13C8, symBinAddr: 0x100001B60, symSize: 0x30 }
  - { offset: 0x99F5, size: 0x8, addend: 0x0, symName: __ZNSt6vectorIP15DocumentElementSaIS1_EE5beginEv, symObjAddr: 0x139C, symBinAddr: 0x100001B34, symSize: 0x2C }
  - { offset: 0x9A47, size: 0x8, addend: 0x0, symName: __ZNSt6vectorIP15DocumentElementSaIS1_EE9push_backERKS1_, symObjAddr: 0x12BC, symBinAddr: 0x100001A54, symSize: 0xE0 }
  - { offset: 0x9B77, size: 0x8, addend: 0x0, symName: __ZNSt7__cxx1112basic_stringIcSt11char_traitsIcESaIcEEC1IS3_EEPKcRKS3_, symObjAddr: 0x1220, symBinAddr: 0x1000019B8, symSize: 0x9C }
  - { offset: 0x9BD7, size: 0x8, addend: 0x0, symName: __ZStplIcSt11char_traitsIcESaIcEENSt7__cxx1112basic_stringIT_T0_T1_EEOS8_PKS5_, symObjAddr: 0x11D8, symBinAddr: 0x100001970, symSize: 0x48 }
  - { offset: 0x9C4E, size: 0x8, addend: 0x0, symName: __ZStplIcSt11char_traitsIcESaIcEENSt7__cxx1112basic_stringIT_T0_T1_EEPKS5_RKS8_, symObjAddr: 0x1128, symBinAddr: 0x1000018C0, symSize: 0xB0 }
  - { offset: 0x9D0D, size: 0x8, addend: 0x0, symName: __ZNSt7__cxx1112basic_stringIcSt11char_traitsIcESaIcEEC1ERKS4_, symObjAddr: 0x1058, symBinAddr: 0x1000017F0, symSize: 0xD0 }
  - { offset: 0x9DFE, size: 0x8, addend: 0x0, symName: __ZNSt7__cxx1112basic_stringIcSt11char_traitsIcESaIcEEaSERKS4_, symObjAddr: 0x1034, symBinAddr: 0x1000017CC, symSize: 0x24 }
  - { offset: 0x9E84, size: 0x8, addend: 0x0, symName: __ZNSt7__cxx1112basic_stringIcSt11char_traitsIcESaIcEEC1EOS4_, symObjAddr: 0xF28, symBinAddr: 0x1000016C0, symSize: 0x10C }
  - { offset: 0x9F37, size: 0x8, addend: 0x0, symName: __ZNSt7__cxx1112basic_stringIcSt11char_traitsIcESaIcEED1Ev, symObjAddr: 0xF00, symBinAddr: 0x100001698, symSize: 0x28 }
  - { offset: 0x9F75, size: 0x8, addend: 0x0, symName: __ZNSt7__cxx1112basic_stringIcSt11char_traitsIcESaIcEEC1Ev, symObjAddr: 0xE8C, symBinAddr: 0x100001624, symSize: 0x74 }
  - { offset: 0xA040, size: 0x8, addend: 0x0, symName: __ZNSt7__cxx1112basic_stringIcSt11char_traitsIcESaIcEE12_Alloc_hiderD1Ev, symObjAddr: 0xE60, symBinAddr: 0x1000015F8, symSize: 0x2C }
  - { offset: 0xA088, size: 0x8, addend: 0x0, symName: __ZNKSt7__cxx1112basic_stringIcSt11char_traitsIcESaIcEE5c_strEv, symObjAddr: 0xE44, symBinAddr: 0x1000015DC, symSize: 0x1C }
  - { offset: 0xA0AC, size: 0x8, addend: 0x0, symName: __ZN9__gnu_cxx11char_traitsIcE6lengthEPKc, symObjAddr: 0xDEC, symBinAddr: 0x100001584, symSize: 0x58 }
  - { offset: 0xA0EB, size: 0x8, addend: 0x0, symName: _main, symObjAddr: 0xAB8, symBinAddr: 0x100001250, symSize: 0x334 }
  - { offset: 0xA360, size: 0x8, addend: 0x0, symName: __ZN11FileStorageC1Ev, symObjAddr: 0xA84, symBinAddr: 0x10000121C, symSize: 0x34 }
  - { offset: 0xA3A2, size: 0x8, addend: 0x0, symName: __ZN11PersistenceC2Ev, symObjAddr: 0xA5C, symBinAddr: 0x1000011F4, symSize: 0x28 }
  - { offset: 0xA3E4, size: 0x8, addend: 0x0, symName: __ZN8DocumentC1Ev, symObjAddr: 0xA3C, symBinAddr: 0x1000011D4, symSize: 0x20 }
  - { offset: 0xA422, size: 0x8, addend: 0x0, symName: __ZNSt6vectorIP15DocumentElementSaIS1_EEC1Ev, symObjAddr: 0xA1C, symBinAddr: 0x1000011B4, symSize: 0x20 }
  - { offset: 0xA460, size: 0x8, addend: 0x0, symName: __ZNSt12_Vector_baseIP15DocumentElementSaIS1_EEC2Ev, symObjAddr: 0x9FC, symBinAddr: 0x100001194, symSize: 0x20 }
  - { offset: 0xA485, size: 0x8, addend: 0x0, symName: __ZN14DocumentEditor12saveDocumentEv, symObjAddr: 0x988, symBinAddr: 0x100001120, symSize: 0x74 }
  - { offset: 0xA4AD, size: 0x8, addend: 0x0, symName: __ZN14DocumentEditor14renderDocumentB5cxx11Ev, symObjAddr: 0x90C, symBinAddr: 0x1000010A4, symSize: 0x7C }
  - { offset: 0xA4E3, size: 0x8, addend: 0x0, symName: __ZN14DocumentEditor11addTabSpaceEv, symObjAddr: 0x870, symBinAddr: 0x100001008, symSize: 0x9C }
  - { offset: 0xA528, size: 0x8, addend: 0x0, symName: __ZN15TabSpaceElementC1Ev, symObjAddr: 0x83C, symBinAddr: 0x100000FD4, symSize: 0x34 }
  - { offset: 0xA54D, size: 0x8, addend: 0x0, symName: __ZN14DocumentEditor10addNewLineEv, symObjAddr: 0x7A0, symBinAddr: 0x100000F38, symSize: 0x9C }
  - { offset: 0xA592, size: 0x8, addend: 0x0, symName: __ZN14NewLineElementC1Ev, symObjAddr: 0x76C, symBinAddr: 0x100000F04, symSize: 0x34 }
  - { offset: 0xA5B7, size: 0x8, addend: 0x0, symName: __ZN14DocumentEditor8addImageENSt7__cxx1112basic_stringIcSt11char_traitsIcESaIcEEE, symObjAddr: 0x6A0, symBinAddr: 0x100000E38, symSize: 0xCC }
  - { offset: 0xA5EF, size: 0x8, addend: 0x0, symName: __ZN14DocumentEditor7addTextENSt7__cxx1112basic_stringIcSt11char_traitsIcESaIcEEE, symObjAddr: 0x5D4, symBinAddr: 0x100000D6C, symSize: 0xCC }
  - { offset: 0xA658, size: 0x8, addend: 0x0, symName: __ZN14DocumentEditorC1EP8DocumentP11Persistence, symObjAddr: 0x590, symBinAddr: 0x100000D28, symSize: 0x44 }
  - { offset: 0xA68F, size: 0x8, addend: 0x0, symName: __ZN11FileStorage4saveENSt7__cxx1112basic_stringIcSt11char_traitsIcESaIcEEE, symObjAddr: 0x4C0, symBinAddr: 0x100000C58, symSize: 0xD0 }
  - { offset: 0xA6DA, size: 0x8, addend: 0x0, symName: __ZN8Document6renderB5cxx11Ev, symObjAddr: 0x3C0, symBinAddr: 0x100000B58, symSize: 0x100 }
  - { offset: 0xA85C, size: 0x8, addend: 0x0, symName: __ZN8Document10addElementEP15DocumentElement, symObjAddr: 0x398, symBinAddr: 0x100000B30, symSize: 0x28 }
  - { offset: 0xA893, size: 0x8, addend: 0x0, symName: __ZN15TabSpaceElement6renderB5cxx11Ev, symObjAddr: 0x324, symBinAddr: 0x100000ABC, symSize: 0x74 }
  - { offset: 0xA93E, size: 0x8, addend: 0x0, symName: __ZN14NewLineElement6renderB5cxx11Ev, symObjAddr: 0x2B0, symBinAddr: 0x100000A48, symSize: 0x74 }
  - { offset: 0xA9E9, size: 0x8, addend: 0x0, symName: __ZN12ImageElement6renderB5cxx11Ev, symObjAddr: 0x230, symBinAddr: 0x1000009C8, symSize: 0x80 }
  - { offset: 0xAA36, size: 0x8, addend: 0x0, symName: __ZN12ImageElementC1ENSt7__cxx1112basic_stringIcSt11char_traitsIcESaIcEEE, symObjAddr: 0x1BC, symBinAddr: 0x100000954, symSize: 0x74 }
  - { offset: 0xAA65, size: 0x8, addend: 0x0, symName: __ZN11TextElement6renderB5cxx11Ev, symObjAddr: 0x184, symBinAddr: 0x10000091C, symSize: 0x38 }
  - { offset: 0xAAB2, size: 0x8, addend: 0x0, symName: __ZN11TextElementC1ENSt7__cxx1112basic_stringIcSt11char_traitsIcESaIcEEE, symObjAddr: 0x110, symBinAddr: 0x1000008A8, symSize: 0x74 }
  - { offset: 0xAAFE, size: 0x8, addend: 0x0, symName: __ZN15DocumentElementC2Ev, symObjAddr: 0xE8, symBinAddr: 0x100000880, symSize: 0x28 }
  - { offset: 0xAB1F, size: 0x8, addend: 0x0, symName: __ZNSt11char_traitsIcE4copyEPcPKcm, symObjAddr: 0x94, symBinAddr: 0x10000082C, symSize: 0x54 }
  - { offset: 0xAB67, size: 0x8, addend: 0x0, symName: __ZNSt11char_traitsIcE6lengthEPKc, symObjAddr: 0x58, symBinAddr: 0x1000007F0, symSize: 0x3C }
  - { offset: 0xABA9, size: 0x8, addend: 0x0, symName: __ZNSt11char_traitsIcE6assignERcRKc, symObjAddr: 0x30, symBinAddr: 0x1000007C8, symSize: 0x28 }
  - { offset: 0xABE9, size: 0x8, addend: 0x0, symName: __ZdlPvS_, symObjAddr: 0x18, symBinAddr: 0x1000007B0, symSize: 0x18 }
  - { offset: 0xAC1D, size: 0x8, addend: 0x0, symName: __ZnwmPv, symObjAddr: 0x0, symBinAddr: 0x100000798, symSize: 0x18 }
...
