---
triple:          'arm64-apple-darwin'
binary-path:     '/Users/ishan/Documents/System_Design/LLD/solid/SRP-solid1'
relocations:
  - { offset: 0x17D34, size: 0x8, addend: 0x0, symName: __ZStL8__ioinit, symObjAddr: 0x70889, symBinAddr: 0x100008000, symSize: 0x0 }
  - { offset: 0x18268, size: 0x8, addend: 0x0, symName: __GLOBAL__sub_I_SRP_solid1.cpp, symObjAddr: 0x1AEC, symBinAddr: 0x1000020B8, symSize: 0x14 }
  - { offset: 0x1827F, size: 0x8, addend: 0x0, symName: __Z41__static_initialization_and_destruction_0v, symObjAddr: 0x1AB0, symBinAddr: 0x10000207C, symSize: 0x3C }
  - { offset: 0x18308, size: 0x8, addend: 0x0, symName: __ZNSt15__new_allocatorIcE8allocateEmPKv, symObjAddr: 0x1920, symBinAddr: 0x100002018, symSize: 0x64 }
  - { offset: 0x1837A, size: 0x8, addend: 0x0, symName: __ZSt14__relocate_a_1IP7ProductS1_ENSt9enable_ifIXsrSt24__is_bitwise_relocatableIT_vE5valueEPS4_E4typeES6_S6_S6_RSaIT0_E, symObjAddr: 0x18BC, symBinAddr: 0x100001FB4, symSize: 0x64 }
  - { offset: 0x1841B, size: 0x8, addend: 0x0, symName: __ZNSt15__new_allocatorIP7ProductE8allocateEmPKv, symObjAddr: 0x1840, symBinAddr: 0x100001F38, symSize: 0x7C }
  - { offset: 0x18491, size: 0x8, addend: 0x0, symName: __ZNKSt12_Vector_baseIP7ProductSaIS1_EE19_M_get_Tp_allocatorEv, symObjAddr: 0x182C, symBinAddr: 0x100001F24, symSize: 0x14 }
  - { offset: 0x184B7, size: 0x8, addend: 0x0, symName: __ZNSt6vectorIP7ProductSaIS1_EE11_S_max_sizeERKS2_, symObjAddr: 0x17D8, symBinAddr: 0x100001ED0, symSize: 0x54 }
  - { offset: 0x185E1, size: 0x8, addend: 0x0, symName: __ZNSt15__new_allocatorIP7ProductE10deallocateEPS1_m, symObjAddr: 0x17A8, symBinAddr: 0x100001EA0, symSize: 0x30 }
  - { offset: 0x18627, size: 0x8, addend: 0x0, symName: __ZSt12__relocate_aIPP7ProductS2_SaIS1_EET0_T_S5_S4_RT1_, symObjAddr: 0x175C, symBinAddr: 0x100001E54, symSize: 0x4C }
  - { offset: 0x18730, size: 0x8, addend: 0x0, symName: __ZNKSt6vectorIP7ProductSaIS1_EE4sizeEv, symObjAddr: 0x171C, symBinAddr: 0x100001E14, symSize: 0x40 }
  - { offset: 0x1876B, size: 0x8, addend: 0x0, symName: __ZNKSt6vectorIP7ProductSaIS1_EE8max_sizeEv, symObjAddr: 0x16FC, symBinAddr: 0x100001DF4, symSize: 0x20 }
  - { offset: 0x18795, size: 0x8, addend: 0x0, symName: __ZNSt15__new_allocatorIcE10deallocateEPcm, symObjAddr: 0x16D4, symBinAddr: 0x100001DCC, symSize: 0x28 }
  - { offset: 0x1883B, size: 0x8, addend: 0x0, symName: __ZNSt19__ptr_traits_ptr_toIPKcS0_Lb0EE10pointer_toERS0_, symObjAddr: 0x16AC, symBinAddr: 0x100001DA4, symSize: 0x28 }
  - { offset: 0x188AA, size: 0x8, addend: 0x0, symName: __ZNSt7__cxx1112basic_stringIcSt11char_traitsIcESaIcEE11_S_allocateERS3_m, symObjAddr: 0x1668, symBinAddr: 0x100001D60, symSize: 0x44 }
  - { offset: 0x18997, size: 0x8, addend: 0x0, symName: __ZNSt6vectorIP7ProductSaIS1_EE11_S_relocateEPS1_S4_S4_RS2_, symObjAddr: 0x1634, symBinAddr: 0x100001D2C, symSize: 0x34 }
  - { offset: 0x18A2D, size: 0x8, addend: 0x0, symName: __ZNSt6vectorIP7ProductSaIS1_EE12_Guard_allocD1Ev, symObjAddr: 0x15E8, symBinAddr: 0x100001CE0, symSize: 0x4C }
  - { offset: 0x18A92, size: 0x8, addend: 0x0, symName: __ZNSt6vectorIP7ProductSaIS1_EE12_Guard_allocC1EPS1_mRSt12_Vector_baseIS1_S2_E, symObjAddr: 0x15A4, symBinAddr: 0x100001C9C, symSize: 0x44 }
  - { offset: 0x18AD3, size: 0x8, addend: 0x0, symName: __ZNSt12_Vector_baseIP7ProductSaIS1_EE11_M_allocateEm, symObjAddr: 0x1554, symBinAddr: 0x100001C4C, symSize: 0x50 }
  - { offset: 0x18B74, size: 0x8, addend: 0x0, symName: __ZNKSt6vectorIP7ProductSaIS1_EE12_M_check_lenEmPKc, symObjAddr: 0x1484, symBinAddr: 0x100001B7C, symSize: 0xD0 }
  - { offset: 0x18C76, size: 0x8, addend: 0x0, symName: __ZNSt7__cxx1112basic_stringIcSt11char_traitsIcESaIcEE13_S_copy_charsIPKcEEvPcT_S9_, symObjAddr: 0x143C, symBinAddr: 0x100001B34, symSize: 0x48 }
  - { offset: 0x18CF3, size: 0x8, addend: 0x0, symName: __ZNKSt7__cxx1112basic_stringIcSt11char_traitsIcESaIcEE8max_sizeEv, symObjAddr: 0x13E0, symBinAddr: 0x100001AD8, symSize: 0x5C }
  - { offset: 0x18DD4, size: 0x8, addend: 0x0, symName: __ZNKSt7__cxx1112basic_stringIcSt11char_traitsIcESaIcEE13_M_local_dataEv, symObjAddr: 0x13C0, symBinAddr: 0x100001AB8, symSize: 0x20 }
  - { offset: 0x18E01, size: 0x8, addend: 0x0, symName: __ZNSt7__cxx1112basic_stringIcSt11char_traitsIcESaIcEE9_M_createERmm, symObjAddr: 0x12CC, symBinAddr: 0x1000019C4, symSize: 0xF4 }
  - { offset: 0x18E68, size: 0x8, addend: 0x0, symName: __ZNSt19__ptr_traits_ptr_toIPccLb0EE10pointer_toERc, symObjAddr: 0x12A4, symBinAddr: 0x10000199C, symSize: 0x28 }
  - { offset: 0x18EDB, size: 0x8, addend: 0x0, symName: __ZNSt12_Vector_baseIP7ProductSaIS1_EE19_M_get_Tp_allocatorEv, symObjAddr: 0x1290, symBinAddr: 0x100001988, symSize: 0x14 }
  - { offset: 0x18F05, size: 0x8, addend: 0x0, symName: __ZNSt12_Vector_baseIP7ProductSaIS1_EE13_M_deallocateEPS1_m, symObjAddr: 0x1238, symBinAddr: 0x100001930, symSize: 0x58 }
  - { offset: 0x18F9F, size: 0x8, addend: 0x0, symName: __ZNSt12_Vector_baseIP7ProductSaIS1_EE17_Vector_impl_dataC2Ev, symObjAddr: 0x120C, symBinAddr: 0x100001904, symSize: 0x2C }
  - { offset: 0x18FFA, size: 0x8, addend: 0x0, symName: __ZNSt6vectorIP7ProductSaIS1_EE17_M_realloc_appendIJRKS1_EEEvDpOT_, symObjAddr: 0x1018, symBinAddr: 0x100001710, symSize: 0x1F4 }
  - { offset: 0x19285, size: 0x8, addend: 0x0, symName: __ZNSt7__cxx1112basic_stringIcSt11char_traitsIcESaIcEE7_S_copyEPcPKcm, symObjAddr: 0xFCC, symBinAddr: 0x1000016C4, symSize: 0x4C }
  - { offset: 0x192D5, size: 0x8, addend: 0x0, symName: __ZNSt7__cxx1112basic_stringIcSt11char_traitsIcESaIcEE10_M_destroyEm, symObjAddr: 0xF68, symBinAddr: 0x100001660, symSize: 0x64 }
  - { offset: 0x19346, size: 0x8, addend: 0x0, symName: __ZNSt7__cxx1112basic_stringIcSt11char_traitsIcESaIcEE12_M_constructILb1EEEvPKcm, symObjAddr: 0xEC8, symBinAddr: 0x1000015C0, symSize: 0xA0 }
  - { offset: 0x193D4, size: 0x8, addend: 0x0, symName: __ZNKSt7__cxx1112basic_stringIcSt11char_traitsIcESaIcEE16_M_get_allocatorEv, symObjAddr: 0xEB4, symBinAddr: 0x1000015AC, symSize: 0x14 }
  - { offset: 0x193FE, size: 0x8, addend: 0x0, symName: __ZNSt7__cxx1112basic_stringIcSt11char_traitsIcESaIcEE12_M_constructIPKcEEvT_S8_St20forward_iterator_tag, symObjAddr: 0xDD4, symBinAddr: 0x1000014CC, symSize: 0xE0 }
  - { offset: 0x194FA, size: 0x8, addend: 0x0, symName: __ZZNSt7__cxx1112basic_stringIcSt11char_traitsIcESaIcEE12_M_constructIPKcEEvT_S8_St20forward_iterator_tagEN6_GuardC1EPS4_, symObjAddr: 0xD7C, symBinAddr: 0x100001474, symSize: 0x24 }
  - { offset: 0x1952D, size: 0x8, addend: 0x0, symName: __ZZNSt7__cxx1112basic_stringIcSt11char_traitsIcESaIcEE12_M_constructIPKcEEvT_S8_St20forward_iterator_tagEN6_GuardD1Ev, symObjAddr: 0xDA0, symBinAddr: 0x100001498, symSize: 0x34 }
  - { offset: 0x1963B, size: 0x8, addend: 0x0, symName: __ZNSt7__cxx1112basic_stringIcSt11char_traitsIcESaIcEE12_Alloc_hiderC1EPcRKS3_, symObjAddr: 0xD2C, symBinAddr: 0x100001424, symSize: 0x50 }
  - { offset: 0x196E3, size: 0x8, addend: 0x0, symName: __ZNSt15__new_allocatorIcED2Ev, symObjAddr: 0xD18, symBinAddr: 0x100001410, symSize: 0x14 }
  - { offset: 0x1971D, size: 0x8, addend: 0x0, symName: __ZNKSt7__cxx1112basic_stringIcSt11char_traitsIcESaIcEE4sizeEv, symObjAddr: 0xCC8, symBinAddr: 0x1000013C0, symSize: 0x50 }
  - { offset: 0x1976D, size: 0x8, addend: 0x0, symName: __ZNSt7__cxx1112basic_stringIcSt11char_traitsIcESaIcEE9_M_lengthEm, symObjAddr: 0xCA4, symBinAddr: 0x10000139C, symSize: 0x24 }
  - { offset: 0x197A7, size: 0x8, addend: 0x0, symName: __ZNSt7__cxx1112basic_stringIcSt11char_traitsIcESaIcEE11_M_capacityEm, symObjAddr: 0xC80, symBinAddr: 0x100001378, symSize: 0x24 }
  - { offset: 0x197E2, size: 0x8, addend: 0x0, symName: __ZNSt7__cxx1112basic_stringIcSt11char_traitsIcESaIcEE7_M_dataEPc, symObjAddr: 0xC5C, symBinAddr: 0x100001354, symSize: 0x24 }
  - { offset: 0x1981C, size: 0x8, addend: 0x0, symName: __ZNKSt7__cxx1112basic_stringIcSt11char_traitsIcESaIcEE6lengthEv, symObjAddr: 0xC40, symBinAddr: 0x100001338, symSize: 0x1C }
  - { offset: 0x19846, size: 0x8, addend: 0x0, symName: __ZNKSt7__cxx1112basic_stringIcSt11char_traitsIcESaIcEE11_M_is_localEv, symObjAddr: 0xBD8, symBinAddr: 0x1000012D0, symSize: 0x68 }
  - { offset: 0x19893, size: 0x8, addend: 0x0, symName: __ZNSt7__cxx1112basic_stringIcSt11char_traitsIcESaIcEE16_M_get_allocatorEv, symObjAddr: 0xBC4, symBinAddr: 0x1000012BC, symSize: 0x14 }
  - { offset: 0x198BD, size: 0x8, addend: 0x0, symName: __ZNSt7__cxx1112basic_stringIcSt11char_traitsIcESaIcEE10_M_disposeEv, symObjAddr: 0xB7C, symBinAddr: 0x100001274, symSize: 0x48 }
  - { offset: 0x198E7, size: 0x8, addend: 0x0, symName: __ZNSt7__cxx1112basic_stringIcSt11char_traitsIcESaIcEE13_M_set_lengthEm, symObjAddr: 0xB34, symBinAddr: 0x10000122C, symSize: 0x48 }
  - { offset: 0x19968, size: 0x8, addend: 0x0, symName: __ZNSt7__cxx1112basic_stringIcSt11char_traitsIcESaIcEE12_Alloc_hiderC1EPcOS3_, symObjAddr: 0xADC, symBinAddr: 0x1000011D4, symSize: 0x58 }
  - { offset: 0x19A1C, size: 0x8, addend: 0x0, symName: __ZNSt7__cxx1112basic_stringIcSt11char_traitsIcESaIcEE13_M_local_dataEv, symObjAddr: 0xABC, symBinAddr: 0x1000011B4, symSize: 0x20 }
  - { offset: 0x19A46, size: 0x8, addend: 0x0, symName: __ZNKSt7__cxx1112basic_stringIcSt11char_traitsIcESaIcEE7_M_dataEv, symObjAddr: 0xAA4, symBinAddr: 0x10000119C, symSize: 0x18 }
  - { offset: 0x19A6C, size: 0x8, addend: 0x0, symName: __ZN9__gnu_cxx11char_traitsIcE2eqERKcS3_, symObjAddr: 0xA74, symBinAddr: 0x10000116C, symSize: 0x30 }
  - { offset: 0x19AC1, size: 0x8, addend: 0x0, symName: __ZNSt12_Vector_baseIP7ProductSaIS1_EE12_Vector_implC1Ev, symObjAddr: 0xA3C, symBinAddr: 0x100001134, symSize: 0x38 }
  - { offset: 0x19B41, size: 0x8, addend: 0x0, symName: __ZNSt6vectorIP7ProductSaIS1_EE3endEv, symObjAddr: 0xA0C, symBinAddr: 0x100001104, symSize: 0x30 }
  - { offset: 0x19B95, size: 0x8, addend: 0x0, symName: __ZNSt6vectorIP7ProductSaIS1_EE5beginEv, symObjAddr: 0x9E0, symBinAddr: 0x1000010D8, symSize: 0x2C }
  - { offset: 0x19BE9, size: 0x8, addend: 0x0, symName: __ZNSt6vectorIP7ProductSaIS1_EE9push_backERKS1_, symObjAddr: 0x900, symBinAddr: 0x100000FF8, symSize: 0xE0 }
  - { offset: 0x19CFE, size: 0x8, addend: 0x0, symName: __ZNSt7__cxx1112basic_stringIcSt11char_traitsIcESaIcEEC1ERKS4_, symObjAddr: 0x830, symBinAddr: 0x100000F28, symSize: 0xD0 }
  - { offset: 0x19E33, size: 0x8, addend: 0x0, symName: __ZNSt7__cxx1112basic_stringIcSt11char_traitsIcESaIcEEC1IS3_EEPKcRKS3_, symObjAddr: 0x794, symBinAddr: 0x100000E8C, symSize: 0x9C }
  - { offset: 0x19E94, size: 0x8, addend: 0x0, symName: __ZSt3maxImERKT_S2_S2_, symObjAddr: 0x75C, symBinAddr: 0x100000E54, symSize: 0x38 }
  - { offset: 0x19F1C, size: 0x8, addend: 0x0, symName: __ZNSt7__cxx1112basic_stringIcSt11char_traitsIcESaIcEED1Ev, symObjAddr: 0x734, symBinAddr: 0x100000E2C, symSize: 0x28 }
  - { offset: 0x19F5E, size: 0x8, addend: 0x0, symName: __ZNSt7__cxx1112basic_stringIcSt11char_traitsIcESaIcEE12_Alloc_hiderD1Ev, symObjAddr: 0x708, symBinAddr: 0x100000E00, symSize: 0x2C }
  - { offset: 0x19FA3, size: 0x8, addend: 0x0, symName: __ZN9__gnu_cxx11char_traitsIcE6lengthEPKc, symObjAddr: 0x6B0, symBinAddr: 0x100000DA8, symSize: 0x58 }
  - { offset: 0x19FE3, size: 0x8, addend: 0x0, symName: _main, symObjAddr: 0x400, symBinAddr: 0x100000AF8, symSize: 0x2B0 }
  - { offset: 0x1A152, size: 0x8, addend: 0x0, symName: __ZN12ShoppingCartC1Ev, symObjAddr: 0x3E0, symBinAddr: 0x100000AD8, symSize: 0x20 }
  - { offset: 0x1A190, size: 0x8, addend: 0x0, symName: __ZNSt6vectorIP7ProductSaIS1_EEC1Ev, symObjAddr: 0x3C0, symBinAddr: 0x100000AB8, symSize: 0x20 }
  - { offset: 0x1A1CE, size: 0x8, addend: 0x0, symName: __ZNSt12_Vector_baseIP7ProductSaIS1_EEC2Ev, symObjAddr: 0x3A0, symBinAddr: 0x100000A98, symSize: 0x20 }
  - { offset: 0x1A1F4, size: 0x8, addend: 0x0, symName: __ZN12saveCartToDB4saveEv, symObjAddr: 0x368, symBinAddr: 0x100000A60, symSize: 0x38 }
  - { offset: 0x1A243, size: 0x8, addend: 0x0, symName: __ZN12saveCartToDBC1EP12ShoppingCart, symObjAddr: 0x344, symBinAddr: 0x100000A3C, symSize: 0x24 }
  - { offset: 0x1A272, size: 0x8, addend: 0x0, symName: __ZN19ShoppingCartInvoice12printInvoiceEv, symObjAddr: 0x214, symBinAddr: 0x10000090C, symSize: 0x130 }
  - { offset: 0x1A3B0, size: 0x8, addend: 0x0, symName: __ZN19ShoppingCartInvoiceC1EP12ShoppingCart, symObjAddr: 0x1F0, symBinAddr: 0x1000008E8, symSize: 0x24 }
  - { offset: 0x1A43A, size: 0x8, addend: 0x0, symName: __ZN12ShoppingCart11getProductsEv, symObjAddr: 0x1DC, symBinAddr: 0x1000008D4, symSize: 0x14 }
  - { offset: 0x1A464, size: 0x8, addend: 0x0, symName: __ZN12ShoppingCart10addProductEP7Product, symObjAddr: 0x1B4, symBinAddr: 0x1000008AC, symSize: 0x28 }
  - { offset: 0x1A49E, size: 0x8, addend: 0x0, symName: __ZN7Product7getNameB5cxx11Ev, symObjAddr: 0x17C, symBinAddr: 0x100000874, symSize: 0x38 }
  - { offset: 0x1A4C8, size: 0x8, addend: 0x0, symName: __ZN7Product8getPriceEv, symObjAddr: 0x160, symBinAddr: 0x100000858, symSize: 0x1C }
  - { offset: 0x1A524, size: 0x8, addend: 0x0, symName: __ZN7ProductC1EiNSt7__cxx1112basic_stringIcSt11char_traitsIcESaIcEEE, symObjAddr: 0x120, symBinAddr: 0x100000818, symSize: 0x40 }
  - { offset: 0x1A559, size: 0x8, addend: 0x0, symName: __ZSt3minImERKT_S2_S2_, symObjAddr: 0xE8, symBinAddr: 0x1000007E0, symSize: 0x38 }
  - { offset: 0x1A59B, size: 0x8, addend: 0x0, symName: __ZNSt11char_traitsIcE4copyEPcPKcm, symObjAddr: 0x94, symBinAddr: 0x10000078C, symSize: 0x54 }
  - { offset: 0x1A5E7, size: 0x8, addend: 0x0, symName: __ZNSt11char_traitsIcE6lengthEPKc, symObjAddr: 0x58, symBinAddr: 0x100000750, symSize: 0x3C }
  - { offset: 0x1A62B, size: 0x8, addend: 0x0, symName: __ZNSt11char_traitsIcE6assignERcRKc, symObjAddr: 0x30, symBinAddr: 0x100000728, symSize: 0x28 }
  - { offset: 0x1A66D, size: 0x8, addend: 0x0, symName: __ZdlPvS_, symObjAddr: 0x18, symBinAddr: 0x100000710, symSize: 0x18 }
  - { offset: 0x1A6A3, size: 0x8, addend: 0x0, symName: __ZnwmPv, symObjAddr: 0x0, symBinAddr: 0x1000006F8, symSize: 0x18 }
...
